; Function Attrs: inlinehint mustprogress nounwind uwtable
define internal fastcc void @_ZN8QuantLib12_GLOBAL__N_19IntegrandD2Ev(ptr %this.8.val) unnamed_addr #4 align 2 personality ptr @__gxx_personality_v0 {
entry:
  %cmp.not.i.i = icmp eq ptr %this.8.val, null
  br i1 %cmp.not.i.i, label %_ZN5boost10shared_ptrIN8QuantLib17StrikedTypePayoffEED2Ev.exit, label %if.then.i.i

if.then.i.i:                                      ; preds = %entry
  %use_count_.i.i.i = getelementptr inbounds nuw i8, ptr %this.8.val, i64 8
  %0 = atomicrmw sub ptr %use_count_.i.i.i, i32 1 acq_rel, align 4
  %cmp.i.i.i = icmp eq i32 %0, 1
  br i1 %cmp.i.i.i, label %if.then.i.i.i, label %_ZN5boost10shared_ptrIN8QuantLib17StrikedTypePayoffEED2Ev.exit

if.then.i.i.i:                                    ; preds = %if.then.i.i
  %vtable.i.i.i = load ptr, ptr %this.8.val, align 8, !tbaa !35
  %vfn.i.i.i = getelementptr inbounds i8, ptr %vtable.i.i.i, i64 16
  %1 = load ptr, ptr %vfn.i.i.i, align 8
  invoke void %1(ptr noundef nonnull align 8 dereferenceable(16) %this.8.val)
          to label %.noexc.i.i unwind label %terminate.lpad.i.i

.noexc.i.i:                                       ; preds = %if.then.i.i.i
  %weak_count_.i.i.i.i = getelementptr inbounds nuw i8, ptr %this.8.val, i64 12
  %2 = atomicrmw sub ptr %weak_count_.i.i.i.i, i32 1 acq_rel, align 4
  %cmp.i.i.i.i = icmp eq i32 %2, 1
  br i1 %cmp.i.i.i.i, label %if.then.i.i.i.i, label %_ZN5boost10shared_ptrIN8QuantLib17StrikedTypePayoffEED2Ev.exit

if.then.i.i.i.i:                                  ; preds = %.noexc.i.i
  %vtable.i.i.i.i = load ptr, ptr %this.8.val, align 8, !tbaa !35
  %vfn.i.i.i.i = getelementptr inbounds i8, ptr %vtable.i.i.i.i, i64 24
  %3 = load ptr, ptr %vfn.i.i.i.i, align 8
  invoke void %3(ptr noundef nonnull align 8 dereferenceable(16) %this.8.val)
          to label %_ZN5boost10shared_ptrIN8QuantLib17StrikedTypePayoffEED2Ev.exit unwind label %terminate.lpad.i.i

terminate.lpad.i.i:                               ; preds = %if.then.i.i.i.i, %if.then.i.i.i
  %4 = landingpad { ptr, i32 }
          catch ptr null
  %5 = extractvalue { ptr, i32 } %4, 0
  tail call void @__clang_call_terminate(ptr %5) #27
  unreachable

_ZN5boost10shared_ptrIN8QuantLib17StrikedTypePayoffEED2Ev.exit: ; preds = %entry, %if.then.i.i, %.noexc.i.i, %if.then.i.i.i.i
  ret void
}